; Function Attrs: mustprogress uwtable
define internal void @_ZN7rocksdb12_GLOBAL__N_116CountedDirectory19FsyncWithDirOptionsERKNS_9IOOptionsEPNS_14IODebugContextERKNS_15DirFsyncOptionsE(ptr dead_on_unwind noalias writable sret(%"class.rocksdb::IOStatus") align 8 %0, ptr noundef nonnull readonly align 8 captures(none) dereferenceable(33) %1, ptr noundef nonnull align 8 dereferenceable(84) %2, ptr noundef %3, ptr noundef nonnull align 8 dereferenceable(40) %4) unnamed_addr #0 align 2 personality ptr @__gxx_personality_v0 {
  %6 = getelementptr inbounds nuw i8, ptr %1, i64 16
  %7 = load ptr, ptr %6, align 8, !tbaa !143, !noalias !181
  %8 = load ptr, ptr %7, align 8, !tbaa !4, !noalias !181
  %9 = getelementptr inbounds nuw i8, ptr %8, i64 24
  %10 = load ptr, ptr %9, align 8, !noalias !181
  tail call void %10(ptr dead_on_unwind writable sret(%"class.rocksdb::IOStatus") align 8 %0, ptr noundef nonnull align 8 dereferenceable(8) %7, ptr noundef nonnull align 8 dereferenceable(84) %2, ptr noundef %3, ptr noundef nonnull align 8 dereferenceable(40) %4)
  %11 = load i8, ptr %0, align 8, !tbaa !64
  %12 = icmp eq i8 %11, 0
  br i1 %12, label %13, label %18

13:                                               ; preds = %5
  %14 = getelementptr inbounds nuw i8, ptr %1, i64 24
  %15 = load ptr, ptr %14, align 8, !tbaa !151
  %16 = getelementptr inbounds nuw i8, ptr %15, i64 72
  %17 = atomicrmw add ptr %16, i32 1 seq_cst, align 4
  br label %18

18:                                               ; preds = %5, %13
  ret void
}